target datalayout = "e-m:e-p270:32:32-p271:32:32-p272:64:64-i64:64-i128:128-f80:128-n8:16:32:64-S128"
target triple = "x86_64-pc-linux-gnu"

@CurrentUserId = internal global i32 0, align 4
@SecurityRestrictionContext = internal global i32 0, align 4

; Function Attrs: nounwind uwtable
define dso_local zeroext i1 @InLocalUserIdChange() #0 {
  %1 = load i32, ptr @SecurityRestrictionContext, align 4
  %2 = and i32 %1, 1
  %3 = icmp ne i32 %2, 0
  ret i1 %3
}

; Function Attrs: nounwind uwtable
define dso_local void @GetUserIdAndContext(ptr noundef %0, ptr noundef %1) #0 {
  %3 = alloca ptr, align 8
  %4 = alloca ptr, align 8
  store ptr %0, ptr %3, align 8
  store ptr %1, ptr %4, align 8
  %5 = load i32, ptr @CurrentUserId, align 4
  %6 = load ptr, ptr %3, align 8
  store i32 %5, ptr %6, align 4
  %7 = call zeroext i1 @InLocalUserIdChange()
  %8 = load ptr, ptr %4, align 8
  %9 = zext i1 %7 to i8
  store i8 %9, ptr %8, align 1
  ret void
}