; Function Attrs: mustprogress nofree norecurse nosync nounwind willreturn memory(read, argmem: write, inaccessiblemem: none) uwtable
define dso_local void @GetUserIdAndContext(ptr noundef writeonly captures(none) initializes((0, 4)) %0, ptr noundef writeonly captures(none) initializes((0, 1)) %1) local_unnamed_addr #11 {
  %3 = load i32, ptr @CurrentUserId, align 4
  store i32 %3, ptr %0, align 4
  %4 = load i32, ptr @SecurityRestrictionContext, align 4
  %5 = trunc i32 %4 to i8
  %6 = and i8 %5, 1
  store i8 %6, ptr %1, align 1
  ret void
}